Certificate:
    Data:
        Version: 3 (0x2)
        Serial Number: 2 (0x2)
        Signature Algorithm: sha1WithRSAEncryption
        Issuer: C=BJ, ST=BJ, L=BJ, O=9fbank, OU=wallet, CN=10.40.6.122/emailAddress=zhaomeng@9fbank.cc
        Validity
            Not Before: Apr 26 04:40:24 2016 GMT
            Not After : Apr 26 04:40:24 2017 GMT
        Subject: C=BJ, ST=BJ, O=9fbank, OU=wallet, CN=10.40.6.122/emailAddress=zhaomeng@9fbank.cc
        Subject Public Key Info:
            Public Key Algorithm: rsaEncryption
            RSA Public Key: (1024 bit)
                Modulus (1024 bit):
                    00:c3:5d:d4:c9:dc:37:b1:ae:26:7b:c8:2a:d5:24:
                    e8:21:b7:35:9e:62:49:77:1f:50:1b:ed:73:d9:1f:
                    bc:34:6f:ad:cc:00:24:fb:34:11:7b:18:6d:29:11:
                    00:da:65:a4:ae:55:cf:5a:60:b9:fd:69:3d:75:ff:
                    b3:c5:6c:84:fe:a5:cf:71:47:05:91:73:d4:92:16:
                    ee:1a:1f:2b:85:83:52:3d:64:e6:83:fc:83:a2:e4:
                    63:85:35:39:c9:54:82:09:db:f3:9f:45:ae:29:b5:
                    61:cc:ad:a5:b7:53:fd:63:e9:ef:28:cb:c1:82:6b:
                    72:e9:5c:f0:5d:ab:c3:8e:5d
                Exponent: 65537 (0x10001)
        X509v3 extensions:
            X509v3 Basic Constraints: 
                CA:FALSE
            Netscape Comment: 
                OpenSSL Generated Certificate
            X509v3 Subject Key Identifier: 
                A1:7E:96:4E:83:D3:09:5E:D3:16:23:54:75:6A:6E:5B:1B:ED:A4:1B
            X509v3 Authority Key Identifier: 
                keyid:AB:ED:C3:FF:D5:D7:15:7D:85:1C:DE:5C:D3:0E:59:35:5F:90:95:4A

    Signature Algorithm: sha1WithRSAEncryption
        0b:69:29:eb:ed:05:8e:fd:35:5a:02:51:b8:9d:83:6e:0b:c6:
        c0:9b:ee:68:da:79:9f:a5:54:bf:e0:0f:75:61:48:6b:9c:4b:
        de:03:ac:0e:88:9b:d8:3c:e8:d5:e9:4e:a4:e1:08:c5:0f:e0:
        ca:64:d5:3c:8a:db:be:7d:fa:05:02:12:91:17:d8:28:a5:6b:
        f7:ba:0a:da:d6:2a:36:4e:dc:cf:81:69:1d:57:28:26:20:d8:
        7c:e0:24:ec:dc:af:e5:7e:84:5f:4a:02:89:20:bc:da:c6:b0:
        33:fa:20:13:f9:57:c2:b3:fe:50:da:4c:6b:79:bf:e6:fd:29:
        8f:02
-----BEGIN CERTIFICATE-----
MIIC6TCCAlKgAwIBAgIBAjANBgkqhkiG9w0BAQUFADCBgjELMAkGA1UEBhMCQkox
CzAJBgNVBAgTAkJKMQswCQYDVQQHEwJCSjEPMA0GA1UEChMGOWZiYW5rMQ8wDQYD
VQQLEwZ3YWxsZXQxFDASBgNVBAMTCzEwLjQwLjYuMTIyMSEwHwYJKoZIhvcNAQkB
FhJ6aGFvbWVuZ0A5ZmJhbmsuY2MwHhcNMTYwNDI2MDQ0MDI0WhcNMTcwNDI2MDQ0
MDI0WjB1MQswCQYDVQQGEwJCSjELMAkGA1UECBMCQkoxDzANBgNVBAoTBjlmYmFu
azEPMA0GA1UECxMGd2FsbGV0MRQwEgYDVQQDEwsxMC40MC42LjEyMjEhMB8GCSqG
SIb3DQEJARYSemhhb21lbmdAOWZiYW5rLmNjMIGfMA0GCSqGSIb3DQEBAQUAA4GN
ADCBiQKBgQDDXdTJ3DexriZ7yCrVJOghtzWeYkl3H1Ab7XPZH7w0b63MACT7NBF7
GG0pEQDaZaSuVc9aYLn9aT11/7PFbIT+pc9xRwWRc9SSFu4aHyuFg1I9ZOaD/IOi
5GOFNTnJVIIJ2/OfRa4ptWHMraW3U/1j6e8oy8GCa3LpXPBdq8OOXQIDAQABo3sw
eTAJBgNVHRMEAjAAMCwGCWCGSAGG+EIBDQQfFh1PcGVuU1NMIEdlbmVyYXRlZCBD
ZXJ0aWZpY2F0ZTAdBgNVHQ4EFgQUoX6WToPTCV7TFiNUdWpuWxvtpBswHwYDVR0j
BBgwFoAUq+3D/9XXFX2FHN5c0w5ZNV+QlUowDQYJKoZIhvcNAQEFBQADgYEAC2kp
6+0Fjv01WgJRuJ2DbgvGwJvuaNp5n6VUv+APdWFIa5xL3gOsDoib2Dzo1elOpOEI
xQ/gymTVPIrbvn36BQISkRfYKKVr97oK2tYqNk7cz4FpHVcoJiDYfOAk7Nyv5X6E
X0oCiSC82sawM/ogE/lXwrP+UNpMa3m/5v0pjwI=
-----END CERTIFICATE-----
